target datalayout = "e-m:e-p270:32:32-p271:32:32-p272:64:64-i64:64-i128:128-f80:128-n8:16:32:64-S128"
target triple = "x86_64-pc-linux-gnu"

%class.NodeHash = type { ptr, i32, i32, i32, ptr, ptr }
%class.Node = type <{ ptr, ptr, ptr, i32, i32, i32, i32, i32, i32, i32, [4 x i8] }>

; Function Attrs: mustprogress nounwind uwtable
define linkonce_odr hidden noundef ptr @_ZNK4Node2inEj(ptr noundef nonnull align 8 dereferenceable(52) %0, i32 noundef %1) #1 comdat align 2 {
  %3 = alloca ptr, align 8
  %4 = alloca i32, align 4
  store ptr %0, ptr %3, align 8
  store i32 %1, ptr %4, align 4
  %5 = load ptr, ptr %3, align 8
  %6 = getelementptr inbounds %class.Node, ptr %5, i32 0, i32 1
  %7 = load ptr, ptr %6, align 8
  %8 = load i32, ptr %4, align 4
  %9 = zext i32 %8 to i64
  %10 = getelementptr inbounds ptr, ptr %7, i64 %9
  %11 = load ptr, ptr %10, align 8
  ret ptr %11
}

; Function Attrs: mustprogress nounwind uwtable
define linkonce_odr hidden noundef i32 @_ZNK4Node3reqEv(ptr noundef nonnull align 8 dereferenceable(52) %0) #1 comdat align 2 {
  %2 = alloca ptr, align 8
  store ptr %0, ptr %2, align 8
  %3 = load ptr, ptr %2, align 8
  %4 = getelementptr inbounds %class.Node, ptr %3, i32 0, i32 3
  %5 = load i32, ptr %4, align 8
  ret i32 %5
}

; Function Attrs: mustprogress nounwind uwtable
define hidden noundef ptr @_ZN8NodeHash9hash_findEPK4Node(ptr noundef nonnull align 8 dereferenceable(40) %0, ptr noundef %1) #1 align 2 {
  %3 = alloca ptr, align 8
  %4 = alloca ptr, align 8
  %5 = alloca ptr, align 8
  %6 = alloca i32, align 4
  %7 = alloca i32, align 4
  %8 = alloca i32, align 4
  %9 = alloca ptr, align 8
  %10 = alloca i32, align 4
  %11 = alloca i32, align 4
  %12 = alloca i32, align 4
  store ptr %0, ptr %4, align 8
  store ptr %1, ptr %5, align 8
  %13 = load ptr, ptr %4, align 8
  %14 = load ptr, ptr %5, align 8
  %15 = load ptr, ptr %14, align 8
  %16 = getelementptr inbounds ptr, ptr %15, i64 11
  %17 = load ptr, ptr %16, align 8
  %18 = call noundef i32 %17(ptr noundef nonnull align 8 dereferenceable(52) %14)
  store i32 %18, ptr %6, align 4
  %19 = load i32, ptr %6, align 4
  %20 = icmp eq i32 %19, 0
  br i1 %20, label %21, label %22

21:                                               ; preds = %2
  store ptr null, ptr %3, align 8
  br label %107

22:                                               ; preds = %2
  %23 = load i32, ptr %6, align 4
  %24 = getelementptr inbounds %class.NodeHash, ptr %13, i32 0, i32 1
  %25 = load i32, ptr %24, align 8
  %26 = sub i32 %25, 1
  %27 = and i32 %23, %26
  store i32 %27, ptr %7, align 4
  %28 = load i32, ptr %7, align 4
  %29 = or i32 %28, 1
  store i32 %29, ptr %8, align 4
  %30 = getelementptr inbounds %class.NodeHash, ptr %13, i32 0, i32 4
  %31 = load ptr, ptr %30, align 8
  %32 = load i32, ptr %7, align 4
  %33 = zext i32 %32 to i64
  %34 = getelementptr inbounds ptr, ptr %31, i64 %33
  %35 = load ptr, ptr %34, align 8
  store ptr %35, ptr %9, align 8
  %36 = load ptr, ptr %9, align 8
  %37 = icmp ne ptr %36, null
  br i1 %37, label %39, label %38

38:                                               ; preds = %22
  store ptr null, ptr %3, align 8
  br label %107

39:                                               ; preds = %22
  %40 = load ptr, ptr %5, align 8
  %41 = load ptr, ptr %40, align 8
  %42 = getelementptr inbounds ptr, ptr %41, i64 0
  %43 = load ptr, ptr %42, align 8
  %44 = call noundef i32 %43(ptr noundef nonnull align 8 dereferenceable(52) %40)
  store i32 %44, ptr %10, align 4
  %45 = load ptr, ptr %5, align 8
  %46 = call noundef i32 @_ZNK4Node3reqEv(ptr noundef nonnull align 8 dereferenceable(52) %45)
  store i32 %46, ptr %11, align 4
  br label %47

47:                                               ; preds = %106, %39
  %48 = load ptr, ptr %9, align 8
  %49 = call noundef i32 @_ZNK4Node3reqEv(ptr noundef nonnull align 8 dereferenceable(52) %48)
  %50 = load i32, ptr %11, align 4
  %51 = icmp eq i32 %49, %50
  br i1 %51, label %52, label %88

52:                                               ; preds = %47
  %53 = load ptr, ptr %9, align 8
  %54 = load ptr, ptr %53, align 8
  %55 = getelementptr inbounds ptr, ptr %54, i64 0
  %56 = load ptr, ptr %55, align 8
  %57 = call noundef i32 %56(ptr noundef nonnull align 8 dereferenceable(52) %53)
  %58 = load i32, ptr %10, align 4
  %59 = icmp eq i32 %57, %58
  br i1 %59, label %60, label %88

60:                                               ; preds = %52
  store i32 0, ptr %12, align 4
  br label %61

61:                                               ; preds = %75, %60
  %62 = load i32, ptr %12, align 4
  %63 = load i32, ptr %11, align 4
  %64 = icmp ult i32 %62, %63
  br i1 %64, label %65, label %78

65:                                               ; preds = %61
  %66 = load ptr, ptr %5, align 8
  %67 = load i32, ptr %12, align 4
  %68 = call noundef ptr @_ZNK4Node2inEj(ptr noundef nonnull align 8 dereferenceable(52) %66, i32 noundef %67)
  %69 = load ptr, ptr %9, align 8
  %70 = load i32, ptr %12, align 4
  %71 = call noundef ptr @_ZNK4Node2inEj(ptr noundef nonnull align 8 dereferenceable(52) %69, i32 noundef %70)
  %72 = icmp ne ptr %68, %71
  br i1 %72, label %73, label %74

73:                                               ; preds = %65
  br label %89

74:                                               ; preds = %65
  br label %75

75:                                               ; preds = %74
  %76 = load i32, ptr %12, align 4
  %77 = add i32 %76, 1
  store i32 %77, ptr %12, align 4
  br label %61, !llvm.loop !6

78:                                               ; preds = %61
  %79 = load ptr, ptr %5, align 8
  %80 = load ptr, ptr %9, align 8
  %81 = load ptr, ptr %79, align 8
  %82 = getelementptr inbounds ptr, ptr %81, i64 12
  %83 = load ptr, ptr %82, align 8
  %84 = call noundef zeroext i1 %83(ptr noundef nonnull align 8 dereferenceable(52) %79, ptr noundef nonnull align 8 dereferenceable(52) %80)
  br i1 %84, label %85, label %87

85:                                               ; preds = %78
  %86 = load ptr, ptr %9, align 8
  store ptr %86, ptr %3, align 8
  br label %107

87:                                               ; preds = %78
  br label %88

88:                                               ; preds = %87, %52, %47
  br label %89

89:                                               ; preds = %88, %73
  %90 = load i32, ptr %7, align 4
  %91 = load i32, ptr %8, align 4
  %92 = add i32 %90, %91
  %93 = getelementptr inbounds %class.NodeHash, ptr %13, i32 0, i32 1
  %94 = load i32, ptr %93, align 8
  %95 = sub i32 %94, 1
  %96 = and i32 %92, %95
  store i32 %96, ptr %7, align 4
  %97 = getelementptr inbounds %class.NodeHash, ptr %13, i32 0, i32 4
  %98 = load ptr, ptr %97, align 8
  %99 = load i32, ptr %7, align 4
  %100 = zext i32 %99 to i64
  %101 = getelementptr inbounds ptr, ptr %98, i64 %100
  %102 = load ptr, ptr %101, align 8
  store ptr %102, ptr %9, align 8
  %103 = load ptr, ptr %9, align 8
  %104 = icmp ne ptr %103, null
  br i1 %104, label %106, label %105

105:                                              ; preds = %89
  store ptr null, ptr %3, align 8
  br label %107

106:                                              ; preds = %89
  br label %47, !llvm.loop !8

107:                                              ; preds = %105, %85, %38, %21
  %108 = load ptr, ptr %3, align 8
  ret ptr %108
}