; Function Attrs: mustprogress nounwind uwtable
define hidden noundef ptr @_ZN8NodeHash9hash_findEPK4Node(ptr nocapture noundef nonnull readonly align 8 dereferenceable(40) %0, ptr noundef %1) local_unnamed_addr #0 align 2 {
  %3 = load ptr, ptr %1, align 8
  %4 = getelementptr inbounds i8, ptr %3, i64 88
  %5 = load ptr, ptr %4, align 8
  %6 = tail call noundef i32 %5(ptr noundef nonnull align 8 dereferenceable(52) %1) #16
  %7 = icmp eq i32 %6, 0
  br i1 %7, label %.loopexit36, label %8

8:                                                ; preds = %2
  %9 = getelementptr inbounds i8, ptr %0, i64 8
  %10 = load i32, ptr %9, align 8
  %11 = add i32 %10, -1
  %12 = and i32 %11, %6
  %13 = or i32 %12, 1
  %14 = getelementptr inbounds i8, ptr %0, i64 24
  %15 = load ptr, ptr %14, align 8
  %16 = zext i32 %12 to i64
  %17 = getelementptr inbounds ptr, ptr %15, i64 %16
  %18 = load ptr, ptr %17, align 8
  %.not = icmp eq ptr %18, null
  br i1 %.not, label %.loopexit36, label %19

19:                                               ; preds = %8
  %20 = load ptr, ptr %1, align 8
  %21 = load ptr, ptr %20, align 8
  %22 = tail call noundef i32 %21(ptr noundef nonnull align 8 dereferenceable(52) %1) #16
  %23 = getelementptr inbounds i8, ptr %1, i64 24
  %24 = load i32, ptr %23, align 8
  %.fr38 = freeze i32 %24
  %.not39 = icmp eq i32 %.fr38, 0
  %25 = getelementptr inbounds i8, ptr %1, i64 8
  br i1 %.not39, label %.split, label %.split.us.preheader

.split.us.preheader:                              ; preds = %19
  %wide.trip.count = zext i32 %.fr38 to i64
  br label %.split.us

.split.us:                                        ; preds = %.split.us.preheader, %.loopexit.us
  %.029.us = phi ptr [ %47, %.loopexit.us ], [ %18, %.split.us.preheader ]
  %.028.us = phi i32 [ %43, %.loopexit.us ], [ %12, %.split.us.preheader ]
  %26 = getelementptr inbounds i8, ptr %.029.us, i64 24
  %27 = load i32, ptr %26, align 8
  %28 = icmp eq i32 %27, %.fr38
  br i1 %28, label %29, label %.loopexit.us

29:                                               ; preds = %.split.us
  %30 = load ptr, ptr %.029.us, align 8
  %31 = load ptr, ptr %30, align 8
  %32 = tail call noundef i32 %31(ptr noundef nonnull align 8 dereferenceable(52) %.029.us) #16
  %33 = icmp eq i32 %32, %22
  br i1 %33, label %.preheader.us, label %.loopexit.us

34:                                               ; preds = %35
  %indvars.iv.next = add nuw nsw i64 %indvars.iv, 1
  %exitcond.not = icmp eq i64 %indvars.iv.next, %wide.trip.count
  br i1 %exitcond.not, label %._crit_edge.us, label %35, !llvm.loop !6

35:                                               ; preds = %.preheader.us, %34
  %indvars.iv = phi i64 [ 0, %.preheader.us ], [ %indvars.iv.next, %34 ]
  %36 = getelementptr inbounds ptr, ptr %48, i64 %indvars.iv
  %37 = load ptr, ptr %36, align 8
  %38 = getelementptr inbounds ptr, ptr %50, i64 %indvars.iv
  %39 = load ptr, ptr %38, align 8
  %.not34.us = icmp eq ptr %37, %39
  br i1 %.not34.us, label %34, label %.loopexit.us

.loopexit.us:                                     ; preds = %35, %._crit_edge.us, %29, %.split.us
  %40 = add i32 %.028.us, %13
  %41 = load i32, ptr %9, align 8
  %42 = add i32 %41, -1
  %43 = and i32 %42, %40
  %44 = load ptr, ptr %14, align 8
  %45 = zext i32 %43 to i64
  %46 = getelementptr inbounds ptr, ptr %44, i64 %45
  %47 = load ptr, ptr %46, align 8
  %.not35.us = icmp eq ptr %47, null
  br i1 %.not35.us, label %.loopexit36, label %.split.us, !llvm.loop !8

.preheader.us:                                    ; preds = %29
  %48 = load ptr, ptr %25, align 8
  %49 = getelementptr inbounds i8, ptr %.029.us, i64 8
  %50 = load ptr, ptr %49, align 8
  br label %35

._crit_edge.us:                                   ; preds = %34
  %51 = load ptr, ptr %1, align 8
  %52 = getelementptr inbounds i8, ptr %51, i64 96
  %53 = load ptr, ptr %52, align 8
  %54 = tail call noundef zeroext i1 %53(ptr noundef nonnull align 8 dereferenceable(52) %1, ptr noundef nonnull align 8 dereferenceable(52) %.029.us) #16
  br i1 %54, label %.loopexit36, label %.loopexit.us

.split:                                           ; preds = %19, %67
  %.029 = phi ptr [ %75, %67 ], [ %18, %19 ]
  %.028 = phi i32 [ %71, %67 ], [ %12, %19 ]
  %55 = getelementptr inbounds i8, ptr %.029, i64 24
  %56 = load i32, ptr %55, align 8
  %57 = icmp eq i32 %56, 0
  br i1 %57, label %58, label %67

58:                                               ; preds = %.split
  %59 = load ptr, ptr %.029, align 8
  %60 = load ptr, ptr %59, align 8
  %61 = tail call noundef i32 %60(ptr noundef nonnull align 8 dereferenceable(52) %.029) #16
  %62 = icmp eq i32 %61, %22
  br i1 %62, label %.preheader, label %67

.preheader:                                       ; preds = %58
  %63 = load ptr, ptr %1, align 8
  %64 = getelementptr inbounds i8, ptr %63, i64 96
  %65 = load ptr, ptr %64, align 8
  %66 = tail call noundef zeroext i1 %65(ptr noundef nonnull align 8 dereferenceable(52) %1, ptr noundef nonnull align 8 dereferenceable(52) %.029) #16
  br i1 %66, label %.loopexit36, label %67

67:                                               ; preds = %.split, %58, %.preheader
  %68 = add i32 %.028, %13
  %69 = load i32, ptr %9, align 8
  %70 = add i32 %69, -1
  %71 = and i32 %70, %68
  %72 = load ptr, ptr %14, align 8
  %73 = zext i32 %71 to i64
  %74 = getelementptr inbounds ptr, ptr %72, i64 %73
  %75 = load ptr, ptr %74, align 8
  %.not35 = icmp eq ptr %75, null
  br i1 %.not35, label %.loopexit36, label %.split, !llvm.loop !8

.loopexit36:                                      ; preds = %.loopexit.us, %._crit_edge.us, %.preheader, %67, %8, %2
  %.027 = phi ptr [ null, %2 ], [ null, %8 ], [ null, %67 ], [ %.029, %.preheader ], [ null, %.loopexit.us ], [ %.029.us, %._crit_edge.us ]
  ret ptr %.027
}